target datalayout = "e-m:e-p270:32:32-p271:32:32-p272:64:64-i64:64-i128:128-f80:128-n8:16:32:64-S128"
target triple = "x86_64-pc-linux-gnu"

%struct.SDL_BlitInfo = type { ptr, ptr, i32, i32, i32, i32, ptr, ptr, i32, i32, i32, i32, ptr, ptr, ptr, ptr, ptr, ptr, i32, i32, i8, i8, i8, i8 }

; Function Attrs: nounwind uwtable
define internal void @SDL_Blit_ARGB8888_XBGR8888_Modulate(ptr noundef %0) #0 {
  %2 = alloca ptr, align 8
  %3 = alloca i32, align 4
  %4 = alloca i32, align 4
  %5 = alloca i32, align 4
  %6 = alloca i32, align 4
  %7 = alloca i32, align 4
  %8 = alloca i32, align 4
  %9 = alloca i32, align 4
  %10 = alloca i32, align 4
  %11 = alloca ptr, align 8
  %12 = alloca ptr, align 8
  %13 = alloca i32, align 4
  %14 = alloca i16, align 2
  %15 = alloca i16, align 2
  %16 = alloca i16, align 2
  store ptr %0, ptr %2, align 8
  call void @llvm.lifetime.start.p0(i64 4, ptr %3) #2
  %17 = load ptr, ptr %2, align 8
  %18 = getelementptr inbounds nuw %struct.SDL_BlitInfo, ptr %17, i32 0, i32 18
  %19 = load i32, ptr %18, align 8
  store i32 %19, ptr %3, align 4
  call void @llvm.lifetime.start.p0(i64 4, ptr %4) #2
  %20 = load ptr, ptr %2, align 8
  %21 = getelementptr inbounds nuw %struct.SDL_BlitInfo, ptr %20, i32 0, i32 20
  %22 = load i8, ptr %21, align 8
  %23 = zext i8 %22 to i32
  store i32 %23, ptr %4, align 4
  call void @llvm.lifetime.start.p0(i64 4, ptr %5) #2
  %24 = load ptr, ptr %2, align 8
  %25 = getelementptr inbounds nuw %struct.SDL_BlitInfo, ptr %24, i32 0, i32 21
  %26 = load i8, ptr %25, align 1
  %27 = zext i8 %26 to i32
  store i32 %27, ptr %5, align 4
  call void @llvm.lifetime.start.p0(i64 4, ptr %6) #2
  %28 = load ptr, ptr %2, align 8
  %29 = getelementptr inbounds nuw %struct.SDL_BlitInfo, ptr %28, i32 0, i32 22
  %30 = load i8, ptr %29, align 2
  %31 = zext i8 %30 to i32
  store i32 %31, ptr %6, align 4
  call void @llvm.lifetime.start.p0(i64 4, ptr %7) #2
  call void @llvm.lifetime.start.p0(i64 4, ptr %8) #2
  call void @llvm.lifetime.start.p0(i64 4, ptr %9) #2
  call void @llvm.lifetime.start.p0(i64 4, ptr %10) #2
  br label %32

32:                                               ; preds = %147, %1
  %33 = load ptr, ptr %2, align 8
  %34 = getelementptr inbounds nuw %struct.SDL_BlitInfo, ptr %33, i32 0, i32 9
  %35 = load i32, ptr %34, align 4
  %36 = add nsw i32 %35, -1
  store i32 %36, ptr %34, align 4
  %37 = icmp ne i32 %35, 0
  br i1 %37, label %38, label %164

38:                                               ; preds = %32
  call void @llvm.lifetime.start.p0(i64 8, ptr %11) #2
  %39 = load ptr, ptr %2, align 8
  %40 = getelementptr inbounds nuw %struct.SDL_BlitInfo, ptr %39, i32 0, i32 1
  %41 = load ptr, ptr %40, align 8
  store ptr %41, ptr %11, align 8
  call void @llvm.lifetime.start.p0(i64 8, ptr %12) #2
  %42 = load ptr, ptr %2, align 8
  %43 = getelementptr inbounds nuw %struct.SDL_BlitInfo, ptr %42, i32 0, i32 7
  %44 = load ptr, ptr %43, align 8
  store ptr %44, ptr %12, align 8
  call void @llvm.lifetime.start.p0(i64 4, ptr %13) #2
  %45 = load ptr, ptr %2, align 8
  %46 = getelementptr inbounds nuw %struct.SDL_BlitInfo, ptr %45, i32 0, i32 8
  %47 = load i32, ptr %46, align 8
  store i32 %47, ptr %13, align 4
  br label %48

48:                                               ; preds = %133, %38
  %49 = load i32, ptr %13, align 4
  %50 = add nsw i32 %49, -1
  store i32 %50, ptr %13, align 4
  %51 = icmp ne i32 %49, 0
  br i1 %51, label %52, label %147

52:                                               ; preds = %48
  %53 = load ptr, ptr %11, align 8
  %54 = load i32, ptr %53, align 4
  store i32 %54, ptr %7, align 4
  %55 = load i32, ptr %7, align 4
  %56 = lshr i32 %55, 16
  %57 = trunc i32 %56 to i8
  %58 = zext i8 %57 to i32
  store i32 %58, ptr %8, align 4
  %59 = load i32, ptr %7, align 4
  %60 = lshr i32 %59, 8
  %61 = trunc i32 %60 to i8
  %62 = zext i8 %61 to i32
  store i32 %62, ptr %9, align 4
  %63 = load i32, ptr %7, align 4
  %64 = trunc i32 %63 to i8
  %65 = zext i8 %64 to i32
  store i32 %65, ptr %10, align 4
  %66 = load i32, ptr %3, align 4
  %67 = and i32 %66, 1
  %68 = icmp ne i32 %67, 0
  br i1 %68, label %69, label %133

69:                                               ; preds = %52
  br label %70

70:                                               ; preds = %69
  call void @llvm.lifetime.start.p0(i64 2, ptr %14) #2
  %71 = load i32, ptr %8, align 4
  %72 = load i32, ptr %4, align 4
  %73 = mul i32 %71, %72
  %74 = trunc i32 %73 to i16
  store i16 %74, ptr %14, align 2
  %75 = load i16, ptr %14, align 2
  %76 = zext i16 %75 to i32
  %77 = add i32 %76, 1
  %78 = trunc i32 %77 to i16
  store i16 %78, ptr %14, align 2
  %79 = load i16, ptr %14, align 2
  %80 = zext i16 %79 to i32
  %81 = ashr i32 %80, 8
  %82 = load i16, ptr %14, align 2
  %83 = zext i16 %82 to i32
  %84 = add nsw i32 %83, %81
  %85 = trunc i32 %84 to i16
  store i16 %85, ptr %14, align 2
  %86 = load i16, ptr %14, align 2
  %87 = zext i16 %86 to i32
  %88 = ashr i32 %87, 8
  store i32 %88, ptr %8, align 4
  call void @llvm.lifetime.end.p0(i64 2, ptr %14) #2
  br label %89

89:                                               ; preds = %70
  br label %90

90:                                               ; preds = %89
  br label %91

91:                                               ; preds = %90
  call void @llvm.lifetime.start.p0(i64 2, ptr %15) #2
  %92 = load i32, ptr %9, align 4
  %93 = load i32, ptr %5, align 4
  %94 = mul i32 %92, %93
  %95 = trunc i32 %94 to i16
  store i16 %95, ptr %15, align 2
  %96 = load i16, ptr %15, align 2
  %97 = zext i16 %96 to i32
  %98 = add i32 %97, 1
  %99 = trunc i32 %98 to i16
  store i16 %99, ptr %15, align 2
  %100 = load i16, ptr %15, align 2
  %101 = zext i16 %100 to i32
  %102 = ashr i32 %101, 8
  %103 = load i16, ptr %15, align 2
  %104 = zext i16 %103 to i32
  %105 = add nsw i32 %104, %102
  %106 = trunc i32 %105 to i16
  store i16 %106, ptr %15, align 2
  %107 = load i16, ptr %15, align 2
  %108 = zext i16 %107 to i32
  %109 = ashr i32 %108, 8
  store i32 %109, ptr %9, align 4
  call void @llvm.lifetime.end.p0(i64 2, ptr %15) #2
  br label %110

110:                                              ; preds = %91
  br label %111

111:                                              ; preds = %110
  br label %112

112:                                              ; preds = %111
  call void @llvm.lifetime.start.p0(i64 2, ptr %16) #2
  %113 = load i32, ptr %10, align 4
  %114 = load i32, ptr %6, align 4
  %115 = mul i32 %113, %114
  %116 = trunc i32 %115 to i16
  store i16 %116, ptr %16, align 2
  %117 = load i16, ptr %16, align 2
  %118 = zext i16 %117 to i32
  %119 = add i32 %118, 1
  %120 = trunc i32 %119 to i16
  store i16 %120, ptr %16, align 2
  %121 = load i16, ptr %16, align 2
  %122 = zext i16 %121 to i32
  %123 = ashr i32 %122, 8
  %124 = load i16, ptr %16, align 2
  %125 = zext i16 %124 to i32
  %126 = add nsw i32 %125, %123
  %127 = trunc i32 %126 to i16
  store i16 %127, ptr %16, align 2
  %128 = load i16, ptr %16, align 2
  %129 = zext i16 %128 to i32
  %130 = ashr i32 %129, 8
  store i32 %130, ptr %10, align 4
  call void @llvm.lifetime.end.p0(i64 2, ptr %16) #2
  br label %131

131:                                              ; preds = %112
  br label %132

132:                                              ; preds = %131
  br label %133

133:                                              ; preds = %132, %52
  %134 = load i32, ptr %10, align 4
  %135 = shl i32 %134, 16
  %136 = load i32, ptr %9, align 4
  %137 = shl i32 %136, 8
  %138 = or i32 %135, %137
  %139 = load i32, ptr %8, align 4
  %140 = or i32 %138, %139
  store i32 %140, ptr %7, align 4
  %141 = load i32, ptr %7, align 4
  %142 = load ptr, ptr %12, align 8
  store i32 %141, ptr %142, align 4
  %143 = load ptr, ptr %11, align 8
  %144 = getelementptr inbounds nuw i32, ptr %143, i32 1
  store ptr %144, ptr %11, align 8
  %145 = load ptr, ptr %12, align 8
  %146 = getelementptr inbounds nuw i32, ptr %145, i32 1
  store ptr %146, ptr %12, align 8
  br label %48, !llvm.loop !136

147:                                              ; preds = %48
  %148 = load ptr, ptr %2, align 8
  %149 = getelementptr inbounds nuw %struct.SDL_BlitInfo, ptr %148, i32 0, i32 4
  %150 = load i32, ptr %149, align 8
  %151 = load ptr, ptr %2, align 8
  %152 = getelementptr inbounds nuw %struct.SDL_BlitInfo, ptr %151, i32 0, i32 1
  %153 = load ptr, ptr %152, align 8
  %154 = sext i32 %150 to i64
  %155 = getelementptr inbounds i8, ptr %153, i64 %154
  store ptr %155, ptr %152, align 8
  %156 = load ptr, ptr %2, align 8
  %157 = getelementptr inbounds nuw %struct.SDL_BlitInfo, ptr %156, i32 0, i32 10
  %158 = load i32, ptr %157, align 8
  %159 = load ptr, ptr %2, align 8
  %160 = getelementptr inbounds nuw %struct.SDL_BlitInfo, ptr %159, i32 0, i32 7
  %161 = load ptr, ptr %160, align 8
  %162 = sext i32 %158 to i64
  %163 = getelementptr inbounds i8, ptr %161, i64 %162
  store ptr %163, ptr %160, align 8
  call void @llvm.lifetime.end.p0(i64 4, ptr %13) #2
  call void @llvm.lifetime.end.p0(i64 8, ptr %12) #2
  call void @llvm.lifetime.end.p0(i64 8, ptr %11) #2
  br label %32, !llvm.loop !137

164:                                              ; preds = %32
  call void @llvm.lifetime.end.p0(i64 4, ptr %10) #2
  call void @llvm.lifetime.end.p0(i64 4, ptr %9) #2
  call void @llvm.lifetime.end.p0(i64 4, ptr %8) #2
  call void @llvm.lifetime.end.p0(i64 4, ptr %7) #2
  call void @llvm.lifetime.end.p0(i64 4, ptr %6) #2
  call void @llvm.lifetime.end.p0(i64 4, ptr %5) #2
  call void @llvm.lifetime.end.p0(i64 4, ptr %4) #2
  call void @llvm.lifetime.end.p0(i64 4, ptr %3) #2
  ret void
}