; Function Attrs: nofree norecurse nosync nounwind memory(readwrite, inaccessiblemem: none) uwtable
define internal void @SDL_Blit_ARGB8888_XBGR8888_Modulate(ptr noundef captures(none) %0) #0 {
  %2 = getelementptr inbounds nuw i8, ptr %0, i64 112
  %3 = load i32, ptr %2, align 8
  %4 = getelementptr inbounds nuw i8, ptr %0, i64 120
  %5 = load i8, ptr %4, align 8
  %6 = zext i8 %5 to i32
  %7 = getelementptr inbounds nuw i8, ptr %0, i64 121
  %8 = load i8, ptr %7, align 1
  %9 = zext i8 %8 to i32
  %10 = getelementptr inbounds nuw i8, ptr %0, i64 122
  %11 = load i8, ptr %10, align 2
  %12 = zext i8 %11 to i32
  %13 = getelementptr inbounds nuw i8, ptr %0, i64 52
  %14 = load i32, ptr %13, align 4
  %15 = add nsw i32 %14, -1
  store i32 %15, ptr %13, align 4
  %.not52 = icmp eq i32 %14, 0
  br i1 %.not52, label %._crit_edge55, label %.lr.ph54

.lr.ph54:                                         ; preds = %1
  %16 = getelementptr inbounds nuw i8, ptr %0, i64 8
  %17 = getelementptr inbounds nuw i8, ptr %0, i64 40
  %18 = getelementptr inbounds nuw i8, ptr %0, i64 48
  %19 = and i32 %3, 1
  %.not48 = icmp eq i32 %19, 0
  %20 = getelementptr inbounds nuw i8, ptr %0, i64 24
  %21 = getelementptr inbounds nuw i8, ptr %0, i64 56
  %22 = load i32, ptr %18, align 8
  %23 = icmp eq i32 %22, 0
  br i1 %23, label %.lr.ph54.split.us, label %.lr.ph54.split

.lr.ph54.split.us:                                ; preds = %.lr.ph54
  %24 = load i32, ptr %20, align 8
  %25 = sext i32 %24 to i64
  %26 = load i32, ptr %21, align 8
  %27 = sext i32 %26 to i64
  %.promoted = load ptr, ptr %16, align 8
  %.promoted56 = load ptr, ptr %17, align 8
  %28 = zext i32 %14 to i64
  %29 = mul nsw i64 %28, %25
  %scevgep = getelementptr i8, ptr %.promoted, i64 %29
  %30 = mul nsw i64 %28, %27
  %scevgep63 = getelementptr i8, ptr %.promoted56, i64 %30
  store ptr %scevgep, ptr %16, align 8
  store ptr %scevgep63, ptr %17, align 8
  store i32 -1, ptr %13, align 4
  br label %._crit_edge55

.lr.ph54.splitthread-pre-split:                   ; preds = %._crit_edge
  %.pr = load i32, ptr %18, align 8
  br label %.lr.ph54.split

.lr.ph54.split:                                   ; preds = %.lr.ph54, %.lr.ph54.splitthread-pre-split
  %31 = phi i32 [ %.pr, %.lr.ph54.splitthread-pre-split ], [ %22, %.lr.ph54 ]
  %.not4749 = icmp eq i32 %31, 0
  br i1 %.not4749, label %._crit_edge, label %.lr.ph

.lr.ph:                                           ; preds = %.lr.ph54.split
  %32 = add nsw i32 %31, -1
  %33 = load ptr, ptr %17, align 8
  %34 = load ptr, ptr %16, align 8
  br i1 %.not48, label %.lr.ph.split.us, label %.lr.ph.split

.lr.ph.split.us:                                  ; preds = %.lr.ph, %.lr.ph.split.us
  %35 = phi i32 [ %46, %.lr.ph.split.us ], [ %32, %.lr.ph ]
  %.04451.us = phi ptr [ %45, %.lr.ph.split.us ], [ %33, %.lr.ph ]
  %.04550.us = phi ptr [ %44, %.lr.ph.split.us ], [ %34, %.lr.ph ]
  %36 = load i32, ptr %.04550.us, align 4
  %37 = lshr i32 %36, 16
  %38 = and i32 %37, 255
  %39 = and i32 %36, 65280
  %40 = shl i32 %36, 16
  %41 = and i32 %40, 16711680
  %42 = or disjoint i32 %39, %41
  %43 = or disjoint i32 %42, %38
  store i32 %43, ptr %.04451.us, align 4
  %44 = getelementptr inbounds nuw i8, ptr %.04550.us, i64 4
  %45 = getelementptr inbounds nuw i8, ptr %.04451.us, i64 4
  %46 = add nsw i32 %35, -1
  %.not47.us = icmp eq i32 %35, 0
  br i1 %.not47.us, label %._crit_edge, label %.lr.ph.split.us, !llvm.loop !137

.lr.ph.split:                                     ; preds = %.lr.ph, %.lr.ph.split
  %47 = phi i32 [ %76, %.lr.ph.split ], [ %32, %.lr.ph ]
  %.04451 = phi ptr [ %75, %.lr.ph.split ], [ %33, %.lr.ph ]
  %.04550 = phi ptr [ %74, %.lr.ph.split ], [ %34, %.lr.ph ]
  %48 = load i32, ptr %.04550, align 4
  %49 = lshr i32 %48, 16
  %50 = and i32 %49, 255
  %51 = lshr i32 %48, 8
  %52 = and i32 %51, 255
  %53 = and i32 %48, 255
  %54 = mul nuw nsw i32 %50, %6
  %55 = add nuw nsw i32 %54, 1
  %56 = lshr i32 %55, 8
  %57 = and i32 %56, 255
  %58 = add nuw nsw i32 %57, %55
  %59 = lshr i32 %58, 8
  %60 = and i32 %59, 255
  %61 = mul nuw nsw i32 %52, %9
  %62 = add nuw nsw i32 %61, 1
  %63 = lshr i32 %62, 8
  %64 = and i32 %63, 255
  %65 = add nuw nsw i32 %64, %62
  %66 = and i32 %65, 65280
  %67 = mul nuw nsw i32 %53, %12
  %68 = add nuw nsw i32 %67, 1
  %69 = shl nuw nsw i32 %68, 8
  %.mask = and i32 %68, 65280
  %70 = add nuw nsw i32 %.mask, %69
  %71 = and i32 %70, 16711680
  %72 = or disjoint i32 %66, %71
  %73 = or disjoint i32 %72, %60
  store i32 %73, ptr %.04451, align 4
  %74 = getelementptr inbounds nuw i8, ptr %.04550, i64 4
  %75 = getelementptr inbounds nuw i8, ptr %.04451, i64 4
  %76 = add nsw i32 %47, -1
  %.not47 = icmp eq i32 %47, 0
  br i1 %.not47, label %._crit_edge, label %.lr.ph.split, !llvm.loop !137

._crit_edge:                                      ; preds = %.lr.ph.split, %.lr.ph.split.us, %.lr.ph54.split
  %77 = load i32, ptr %20, align 8
  %78 = load ptr, ptr %16, align 8
  %79 = sext i32 %77 to i64
  %80 = getelementptr inbounds i8, ptr %78, i64 %79
  store ptr %80, ptr %16, align 8
  %81 = load i32, ptr %21, align 8
  %82 = load ptr, ptr %17, align 8
  %83 = sext i32 %81 to i64
  %84 = getelementptr inbounds i8, ptr %82, i64 %83
  store ptr %84, ptr %17, align 8
  %85 = load i32, ptr %13, align 4
  %86 = add nsw i32 %85, -1
  store i32 %86, ptr %13, align 4
  %.not = icmp eq i32 %85, 0
  br i1 %.not, label %._crit_edge55, label %.lr.ph54.splitthread-pre-split, !llvm.loop !138

._crit_edge55:                                    ; preds = %._crit_edge, %.lr.ph54.split.us, %1
  ret void
}